(lp0
Vi
p1
aVme
p2
aVmy
p3
aVwe
p4
aVour
p5
aVours
p6
aVyou
p7
aVhe
p8
aVhim
p9
aVhis
p10
aVshe
p11
aVher
p12
aVhers
p13
aVit
p14
aVits
p15
aVthey
p16
aVthem
p17
aVwhat
p18
aVwhich
p19
aVwho
p20
aVwhom
p21
aVthis
p22
aVthat
p23
aVam
p24
aVis
p25
aVare
p26
aVwas
p27
aVwere
p28
aVbeen
p29
aVhave
p30
aVhas
p31
aVhad
p32
aVdo
p33
aVdoes
p34
aVdid
p35
aVa
p36
aVan
p37
aVthe
p38
aVand
p39
aVbut
p40
aVif
p41
aVor
p42
aVas
p43
aVof
p44
aVat
p45
aVby
p46
aVfor
p47
aVwith
p48
aVinto
p49
aVto
p50
aVfrom
p51
aVup
p52
aVin
p53
aVout
p54
aVon
p55
aVoff
p56
aVthen
p57
aVhere
p58
aVwhen
p59
aVwhy
p60
aVhow
p61
aVall
p62
aVany
p63
aVboth
p64
aVsome
p65
aVno
p66
aVnor
p67
aVnot
p68
aVown
p69
aVso
p70
aVtoo
p71
aVvery
p72
aVs
p73
aVt
p74
aVcan
p75
aVwill
p76
aVdon
p77
aVnow
p78
a.